; Function Attrs: nounwind uwtable
define hidden i32 @mbedtls_rsa_parse_pubkey(ptr noundef %0, ptr noundef %1, i64 noundef %2) local_unnamed_addr #0 {
  %4 = alloca ptr, align 8
  %5 = alloca i64, align 8
  call void @llvm.lifetime.start.p0(i64 8, ptr nonnull %4) #14
  store ptr %1, ptr %4, align 8, !tbaa !3
  %6 = getelementptr inbounds nuw i8, ptr %1, i64 %2
  call void @llvm.lifetime.start.p0(i64 8, ptr nonnull %5) #14
  %7 = call i32 @mbedtls_asn1_get_tag(ptr noundef nonnull %4, ptr noundef %6, ptr noundef nonnull %5, i32 noundef 48) #14
  %.not = icmp eq i32 %7, 0
  br i1 %.not, label %8, label %41

8:                                                ; preds = %3
  %9 = load ptr, ptr %4, align 8, !tbaa !3
  %10 = load i64, ptr %5, align 8, !tbaa !8
  %11 = getelementptr inbounds nuw i8, ptr %9, i64 %10
  %.not19 = icmp eq ptr %6, %11
  br i1 %.not19, label %12, label %41

12:                                               ; preds = %8
  %13 = call i32 @mbedtls_asn1_get_tag(ptr noundef nonnull %4, ptr noundef %6, ptr noundef nonnull %5, i32 noundef 2) #14
  %.not20 = icmp eq i32 %13, 0
  br i1 %.not20, label %14, label %41

14:                                               ; preds = %12
  %15 = load ptr, ptr %4, align 8, !tbaa !3
  %.not.i = icmp eq ptr %15, null
  br i1 %.not.i, label %mbedtls_rsa_import_raw.exit.thread, label %16

16:                                               ; preds = %14
  %17 = load i64, ptr %5, align 8, !tbaa !8
  %18 = getelementptr inbounds nuw i8, ptr %0, i64 16
  %19 = call i32 @mbedtls_mpi_read_binary(ptr noundef nonnull %18, ptr noundef nonnull %15, i64 noundef %17) #14
  switch i32 %19, label %41 [
    i32 0, label %20
    i32 16512, label %mbedtls_rsa_import_raw.exit.thread
  ]

20:                                               ; preds = %16
  %21 = call i64 @mbedtls_mpi_size(ptr noundef nonnull %18) #14
  %22 = getelementptr inbounds nuw i8, ptr %0, i64 8
  store i64 %21, ptr %22, align 8, !tbaa !12
  br label %mbedtls_rsa_import_raw.exit.thread

mbedtls_rsa_import_raw.exit.thread:               ; preds = %16, %14, %20
  %23 = load i64, ptr %5, align 8, !tbaa !8
  %24 = load ptr, ptr %4, align 8, !tbaa !3
  %25 = getelementptr inbounds nuw i8, ptr %24, i64 %23
  store ptr %25, ptr %4, align 8, !tbaa !3
  %26 = call i32 @mbedtls_asn1_get_tag(ptr noundef nonnull %4, ptr noundef %6, ptr noundef nonnull %5, i32 noundef 2) #14
  %.not22 = icmp eq i32 %26, 0
  br i1 %.not22, label %27, label %41

27:                                               ; preds = %mbedtls_rsa_import_raw.exit.thread
  %28 = load ptr, ptr %4, align 8, !tbaa !3
  %.old1.not.i = icmp eq ptr %28, null
  br i1 %.old1.not.i, label %mbedtls_rsa_import_raw.exit29.thread, label %29

29:                                               ; preds = %27
  %30 = load i64, ptr %5, align 8, !tbaa !8
  %31 = getelementptr inbounds nuw i8, ptr %0, i64 32
  %32 = call i32 @mbedtls_mpi_read_binary(ptr noundef nonnull %31, ptr noundef nonnull %28, i64 noundef %30) #14
  switch i32 %32, label %41 [
    i32 16512, label %mbedtls_rsa_import_raw.exit29.thread
    i32 0, label %mbedtls_rsa_import_raw.exit29.thread
  ]

mbedtls_rsa_import_raw.exit29.thread:             ; preds = %29, %29, %27
  %33 = load i64, ptr %5, align 8, !tbaa !8
  %34 = load ptr, ptr %4, align 8, !tbaa !3
  %35 = getelementptr inbounds nuw i8, ptr %34, i64 %33
  store ptr %35, ptr %4, align 8, !tbaa !3
  %36 = call i32 @mbedtls_rsa_complete(ptr noundef %0)
  %.not24 = icmp eq i32 %36, 0
  br i1 %.not24, label %37, label %41

37:                                               ; preds = %mbedtls_rsa_import_raw.exit29.thread
  %38 = call i32 @mbedtls_rsa_check_pubkey(ptr noundef %0)
  %.not25 = icmp eq i32 %38, 0
  br i1 %.not25, label %39, label %41

39:                                               ; preds = %37
  %40 = load ptr, ptr %4, align 8, !tbaa !3
  %.not26 = icmp eq ptr %40, %6
  %. = select i1 %.not26, i32 0, i32 -102
  br label %41

41:                                               ; preds = %29, %16, %39, %mbedtls_rsa_import_raw.exit29.thread, %37, %mbedtls_rsa_import_raw.exit.thread, %12, %8, %3
  %.0 = phi i32 [ %7, %3 ], [ -16512, %8 ], [ %13, %12 ], [ %26, %mbedtls_rsa_import_raw.exit.thread ], [ -16512, %37 ], [ -16512, %mbedtls_rsa_import_raw.exit29.thread ], [ %., %39 ], [ -16512, %29 ], [ -16512, %16 ]
  call void @llvm.lifetime.end.p0(i64 8, ptr nonnull %5) #14
  call void @llvm.lifetime.end.p0(i64 8, ptr nonnull %4) #14
  ret i32 %.0
}